target datalayout = "e-m:e-p270:32:32-p271:32:32-p272:64:64-i64:64-i128:128-f80:128-n8:16:32:64-S128"
target triple = "x86_64-unknown-linux-gnu"

; Function Attrs: nounwind sspstrong uwtable
define dso_local i32 @slow_bitmap_andnot(ptr noundef %dst, ptr noundef %bitmap1, ptr noundef %bitmap2, i64 noundef %bits) #0 {
entry:
  %dst.addr = alloca ptr, align 8
  %bitmap1.addr = alloca ptr, align 8
  %bitmap2.addr = alloca ptr, align 8
  %bits.addr = alloca i64, align 8
  %k = alloca i64, align 8
  %nr = alloca i64, align 8
  %result = alloca i64, align 8
  store ptr %dst, ptr %dst.addr, align 8
  store ptr %bitmap1, ptr %bitmap1.addr, align 8
  store ptr %bitmap2, ptr %bitmap2.addr, align 8
  store i64 %bits, ptr %bits.addr, align 8
  %0 = load i64, ptr %bits.addr, align 8
  %add = add i64 %0, 64
  %sub = sub i64 %add, 1
  %div = udiv i64 %sub, 64
  store i64 %div, ptr %nr, align 8
  store i64 0, ptr %result, align 8
  store i64 0, ptr %k, align 8
  br label %for.cond

for.cond:                                         ; preds = %for.inc, %entry
  %1 = load i64, ptr %k, align 8
  %2 = load i64, ptr %nr, align 8
  %cmp = icmp slt i64 %1, %2
  br i1 %cmp, label %for.body, label %for.end

for.body:                                         ; preds = %for.cond
  %3 = load ptr, ptr %bitmap1.addr, align 8
  %4 = load i64, ptr %k, align 8
  %arrayidx = getelementptr i64, ptr %3, i64 %4
  %5 = load i64, ptr %arrayidx, align 8
  %6 = load ptr, ptr %bitmap2.addr, align 8
  %7 = load i64, ptr %k, align 8
  %arrayidx1 = getelementptr i64, ptr %6, i64 %7
  %8 = load i64, ptr %arrayidx1, align 8
  %not = xor i64 %8, -1
  %and = and i64 %5, %not
  %9 = load ptr, ptr %dst.addr, align 8
  %10 = load i64, ptr %k, align 8
  %arrayidx2 = getelementptr i64, ptr %9, i64 %10
  store i64 %and, ptr %arrayidx2, align 8
  %11 = load i64, ptr %result, align 8
  %or = or i64 %11, %and
  store i64 %or, ptr %result, align 8
  br label %for.inc

for.inc:                                          ; preds = %for.body
  %12 = load i64, ptr %k, align 8
  %inc = add i64 %12, 1
  store i64 %inc, ptr %k, align 8
  br label %for.cond, !llvm.loop !13

for.end:                                          ; preds = %for.cond
  %13 = load i64, ptr %result, align 8
  %cmp3 = icmp ne i64 %13, 0
  %conv = zext i1 %cmp3 to i32
  ret i32 %conv
}